; Function Attrs: mustprogress uwtable
define void @_ZN6casadi8Function6createEPNS_16FunctionInternalERKSt3mapINSt7__cxx1112basic_stringIcSt11char_traitsIcESaIcEEENS_11GenericTypeESt4lessIS9_ESaISt4pairIKS9_SA_EEE(ptr dead_on_unwind noalias writable sret(%"class.casadi::Function") align 8 %0, ptr noundef %1, ptr noundef nonnull align 8 dereferenceable(48) %2) local_unnamed_addr #4 align 2 personality ptr @__gxx_personality_v0 {
  tail call void @_ZN6casadi8FunctionC1Ev(ptr noundef nonnull align 8 dereferenceable(8) %0)
  invoke void @_ZN6casadi13GenericSharedINS_12SharedObjectENS_20SharedObjectInternalEE3ownEPS2_(ptr noundef nonnull align 8 dereferenceable(8) %0, ptr noundef %1)
          to label %_ZN6casadi8Function6createEPNS_16FunctionInternalE.exit unwind label %4

common.resume:                                    ; preds = %8, %4
  %common.resume.op = phi { ptr, i32 } [ %5, %4 ], [ %9, %8 ]
  tail call void @_ZN6casadi8FunctionD1Ev(ptr noundef nonnull align 8 dereferenceable(8) %0) #30
  resume { ptr, i32 } %common.resume.op

4:                                                ; preds = %3
  %5 = landingpad { ptr, i32 }
          cleanup
  br label %common.resume

_ZN6casadi8Function6createEPNS_16FunctionInternalE.exit: ; preds = %3
  %6 = invoke noundef ptr @_ZNK6casadi8FunctionptEv(ptr noundef nonnull align 8 dereferenceable(8) %0)
          to label %7 unwind label %8

7:                                                ; preds = %_ZN6casadi8Function6createEPNS_16FunctionInternalE.exit
  invoke void @_ZN6casadi13ProtoFunction9constructERKSt3mapINSt7__cxx1112basic_stringIcSt11char_traitsIcESaIcEEENS_11GenericTypeESt4lessIS7_ESaISt4pairIKS7_S8_EEE(ptr noundef nonnull align 8 dereferenceable(168) %6, ptr noundef nonnull align 8 dereferenceable(48) %2)
          to label %10 unwind label %8

8:                                                ; preds = %7, %_ZN6casadi8Function6createEPNS_16FunctionInternalE.exit
  %9 = landingpad { ptr, i32 }
          cleanup
  br label %common.resume

10:                                               ; preds = %7
  ret void
}